; Function Attrs: nounwind uwtable
define ptr @l_Lean_Grind_CommRing_Expr_denoteExpr_go___rarg___lambda__9(ptr noundef %0, ptr noundef %1, ptr noundef %2, ptr noundef %3, ptr noundef %4, ptr noundef %5) #0 {
  %7 = ptrtoint ptr %0 to i64
  %8 = and i64 %7, 1
  %.not = icmp eq i64 %8, 0
  br i1 %.not, label %9, label %lean_inc.exit

9:                                                ; preds = %6
  %.val.i = load i32, ptr %0, align 4, !tbaa !6
  %10 = icmp sgt i32 %.val.i, 0
  br i1 %10, label %11, label %13, !prof !5

11:                                               ; preds = %9
  %12 = add nuw i32 %.val.i, 1
  store i32 %12, ptr %0, align 4, !tbaa !6
  br label %lean_inc.exit

13:                                               ; preds = %9
  %.not.i = icmp eq i32 %.val.i, 0
  br i1 %.not.i, label %lean_inc.exit, label %14

14:                                               ; preds = %13
  tail call void @lean_inc_ref_cold(ptr noundef nonnull %0) #3
  br label %lean_inc.exit

lean_inc.exit:                                    ; preds = %14, %13, %11, %6
  %15 = tail call ptr @l_Lean_Grind_CommRing_Expr_denoteExpr_go___rarg(ptr noundef %0, ptr noundef %1, ptr noundef %2)
  tail call void @lean_inc_heartbeat() #3
  %16 = tail call noalias ptr @mi_malloc_small(i64 noundef 48) #3
  %17 = icmp eq ptr %16, null
  br i1 %17, label %18, label %lean_alloc_closure.exit

18:                                               ; preds = %lean_inc.exit
  tail call void @lean_internal_panic_out_of_memory() #4
  unreachable

lean_alloc_closure.exit:                          ; preds = %lean_inc.exit
  %19 = getelementptr inbounds nuw i8, ptr %16, i64 4
  store i32 1, ptr %16, align 4, !tbaa !6
  store i32 -184549328, ptr %19, align 4
  %20 = getelementptr inbounds nuw i8, ptr %16, i64 8
  store ptr @l_Lean_Grind_CommRing_Poly_denoteExpr_denoteTerm___rarg___lambda__1, ptr %20, align 8, !tbaa !11
  %21 = getelementptr inbounds nuw i8, ptr %16, i64 16
  store i16 4, ptr %21, align 8, !tbaa !13
  %22 = getelementptr inbounds nuw i8, ptr %16, i64 18
  store i16 3, ptr %22, align 2, !tbaa !13
  %23 = getelementptr inbounds nuw i8, ptr %16, i64 24
  store ptr %0, ptr %23, align 8, !tbaa !11
  %24 = getelementptr inbounds nuw i8, ptr %16, i64 32
  store ptr %3, ptr %24, align 8, !tbaa !11
  %25 = getelementptr inbounds nuw i8, ptr %16, i64 40
  store ptr %5, ptr %25, align 8, !tbaa !11
  %26 = tail call ptr @lean_apply_4(ptr noundef %4, ptr noundef nonnull inttoptr (i64 1 to ptr), ptr noundef nonnull inttoptr (i64 1 to ptr), ptr noundef %15, ptr noundef nonnull %16) #3
  ret ptr %26
}